; ModuleID = 'source-C-CXX/46/562.c'
source_filename = "source-C-CXX/46/562.c"
target datalayout = "e-m:e-p270:32:32-p271:32:32-p272:64:64-i64:64-f80:128-n8:16:32:64-S128"
target triple = "x86_64-pc-linux-gnu"

@.str = private unnamed_addr constant [3 x i8] c"%d\00", align 1
@.str.1 = private unnamed_addr constant [4 x i8] c"%d \00", align 1

; Function Attrs: nofree nounwind sspstrong uwtable
define dso_local i32 @main() local_unnamed_addr #0 {
  %1 = alloca i32, align 4
  %2 = alloca [100 x i32], align 16
  %3 = alloca i32, align 4
  %4 = bitcast i32* %1 to i8*
  call void @llvm.lifetime.start.p0i8(i64 4, i8* nonnull %4) #3
  %5 = call i32 (i8*, ...) @__isoc99_scanf(i8* getelementptr inbounds ([3 x i8], [3 x i8]* @.str, i64 0, i64 0), i32* nonnull %1)
  %6 = bitcast [100 x i32]* %2 to i8*
  call void @llvm.lifetime.start.p0i8(i64 400, i8* nonnull %6) #3
  %7 = bitcast i32* %3 to i8*
  %8 = load i32, i32* %1, align 4, !tbaa !5
  %9 = icmp sgt i32 %8, 0
  br i1 %9, label %18, label %10

10:                                               ; preds = %0
  %11 = sext i32 %8 to i64
  br label %39

12:                                               ; preds = %18
  %13 = sext i32 %24 to i64
  %14 = icmp sgt i32 %24, 0
  br i1 %14, label %15, label %39

15:                                               ; preds = %12
  %16 = getelementptr inbounds [100 x i32], [100 x i32]* %2, i64 0, i64 %13
  %17 = getelementptr inbounds [100 x i32], [100 x i32]* %2, i64 0, i64 0
  br label %29

18:                                               ; preds = %0, %18
  %19 = phi i64 [ %23, %18 ], [ 0, %0 ]
  call void @llvm.lifetime.start.p0i8(i64 4, i8* nonnull %7) #3
  %20 = call i32 (i8*, ...) @__isoc99_scanf(i8* getelementptr inbounds ([3 x i8], [3 x i8]* @.str, i64 0, i64 0), i32* nonnull %3)
  %21 = load i32, i32* %3, align 4, !tbaa !5
  %22 = getelementptr inbounds [100 x i32], [100 x i32]* %2, i64 0, i64 %19
  store i32 %21, i32* %22, align 4, !tbaa !5
  call void @llvm.lifetime.end.p0i8(i64 4, i8* nonnull %7) #3
  %23 = add nuw nsw i64 %19, 1
  %24 = load i32, i32* %1, align 4, !tbaa !5
  %25 = sext i32 %24 to i64
  %26 = icmp slt i64 %23, %25
  br i1 %26, label %18, label %12, !llvm.loop !9

27:                                               ; preds = %29
  %28 = icmp sgt i32 %24, 1
  br i1 %28, label %44, label %39

29:                                               ; preds = %15, %29
  %30 = phi i32* [ %35, %29 ], [ %16, %15 ]
  %31 = phi i32* [ %34, %29 ], [ %17, %15 ]
  %32 = load i32, i32* %31, align 4, !tbaa !5
  %33 = load i32, i32* %30, align 4, !tbaa !5
  store i32 %33, i32* %31, align 4, !tbaa !5
  store i32 %32, i32* %30, align 4, !tbaa !5
  %34 = getelementptr inbounds i32, i32* %31, i64 1
  %35 = getelementptr inbounds i32, i32* %30, i64 -1
  %36 = icmp ult i32* %34, %35
  br i1 %36, label %29, label %27, !llvm.loop !11

37:                                               ; preds = %44
  %38 = sext i32 %50 to i64
  br label %39

39:                                               ; preds = %37, %12, %10, %27
  %40 = phi i64 [ %13, %27 ], [ %13, %12 ], [ %11, %10 ], [ %38, %37 ]
  %41 = getelementptr inbounds [100 x i32], [100 x i32]* %2, i64 0, i64 %40
  %42 = load i32, i32* %41, align 4, !tbaa !5
  %43 = call i32 (i8*, ...) @printf(i8* nonnull dereferenceable(1) getelementptr inbounds ([3 x i8], [3 x i8]* @.str, i64 0, i64 0), i32 %42)
  call void @llvm.lifetime.end.p0i8(i64 400, i8* nonnull %6) #3
  call void @llvm.lifetime.end.p0i8(i64 4, i8* nonnull %4) #3
  ret i32 0

44:                                               ; preds = %27, %44
  %45 = phi i64 [ %49, %44 ], [ 1, %27 ]
  %46 = getelementptr inbounds [100 x i32], [100 x i32]* %2, i64 0, i64 %45
  %47 = load i32, i32* %46, align 4, !tbaa !5
  %48 = call i32 (i8*, ...) @printf(i8* nonnull dereferenceable(1) getelementptr inbounds ([4 x i8], [4 x i8]* @.str.1, i64 0, i64 0), i32 %47)
  %49 = add nuw nsw i64 %45, 1
  %50 = load i32, i32* %1, align 4, !tbaa !5
  %51 = sext i32 %50 to i64
  %52 = icmp slt i64 %49, %51
  br i1 %52, label %44, label %37, !llvm.loop !12
}

; Function Attrs: argmemonly mustprogress nofree nosync nounwind willreturn
declare void @llvm.lifetime.start.p0i8(i64 immarg, i8* nocapture) #1

; Function Attrs: nofree nounwind
declare noundef i32 @__isoc99_scanf(i8* nocapture noundef readonly, ...) local_unnamed_addr #2

; Function Attrs: argmemonly mustprogress nofree nosync nounwind willreturn
declare void @llvm.lifetime.end.p0i8(i64 immarg, i8* nocapture) #1

; Function Attrs: nofree nounwind
declare noundef i32 @printf(i8* nocapture noundef readonly, ...) local_unnamed_addr #2


!llvm.module.flags = !{!0, !1, !2, !3}
!llvm.ident = !{!4}

!0 = !{i32 1, !"wchar_size", i32 4}
!1 = !{i32 7, !"PIC Level", i32 2}
!2 = !{i32 7, !"PIE Level", i32 2}
!3 = !{i32 7, !"uwtable", i32 1}
!4 = !{!"clang version 13.0.0"}
!5 = !{!6, !6, i64 0}
!6 = !{!"int", !7, i64 0}
!7 = !{!"omnipotent char", !8, i64 0}
!8 = !{!"Simple C/C++ TBAA"}
!9 = distinct !{!9, !10}
!10 = !{!"llvm.loop.mustprogress"}
!11 = distinct !{!11, !10}
!12 = distinct !{!12, !10}
